target datalayout = "e-m:e-p270:32:32-p271:32:32-p272:64:64-i64:64-i128:128-f80:128-n8:16:32:64-S128"
target triple = "x86_64-pc-linux-gnu"

%struct.cbs_st = type { ptr, i64 }

; Function Attrs: nounwind uwtable
define hidden void @CBS_init(ptr noundef %0, ptr noundef %1, i64 noundef %2) #0 {
  %4 = alloca ptr, align 8
  %5 = alloca ptr, align 8
  %6 = alloca i64, align 8
  store ptr %0, ptr %4, align 8, !tbaa !6
  store ptr %1, ptr %5, align 8, !tbaa !11
  store i64 %2, ptr %6, align 8, !tbaa !13
  %7 = load ptr, ptr %5, align 8, !tbaa !11
  %8 = load ptr, ptr %4, align 8, !tbaa !6
  %9 = getelementptr inbounds nuw %struct.cbs_st, ptr %8, i32 0, i32 0
  store ptr %7, ptr %9, align 8, !tbaa !15
  %10 = load i64, ptr %6, align 8, !tbaa !13
  %11 = load ptr, ptr %4, align 8, !tbaa !6
  %12 = getelementptr inbounds nuw %struct.cbs_st, ptr %11, i32 0, i32 1
  store i64 %10, ptr %12, align 8, !tbaa !17
  ret void
}

; Function Attrs: nounwind uwtable
define internal i32 @cbs_get(ptr noundef %0, ptr noundef %1, i64 noundef %2) #0 {
  %4 = alloca i32, align 4
  %5 = alloca ptr, align 8
  %6 = alloca ptr, align 8
  %7 = alloca i64, align 8
  store ptr %0, ptr %5, align 8, !tbaa !6
  store ptr %1, ptr %6, align 8, !tbaa !18
  store i64 %2, ptr %7, align 8, !tbaa !13
  %8 = load ptr, ptr %5, align 8, !tbaa !6
  %9 = getelementptr inbounds nuw %struct.cbs_st, ptr %8, i32 0, i32 1
  %10 = load i64, ptr %9, align 8, !tbaa !17
  %11 = load i64, ptr %7, align 8, !tbaa !13
  %12 = icmp ult i64 %10, %11
  br i1 %12, label %13, label %14

13:                                               ; preds = %3
  store i32 0, ptr %4, align 4
  br label %29

14:                                               ; preds = %3
  %15 = load ptr, ptr %5, align 8, !tbaa !6
  %16 = getelementptr inbounds nuw %struct.cbs_st, ptr %15, i32 0, i32 0
  %17 = load ptr, ptr %16, align 8, !tbaa !15
  %18 = load ptr, ptr %6, align 8, !tbaa !18
  store ptr %17, ptr %18, align 8, !tbaa !11
  %19 = load i64, ptr %7, align 8, !tbaa !13
  %20 = load ptr, ptr %5, align 8, !tbaa !6
  %21 = getelementptr inbounds nuw %struct.cbs_st, ptr %20, i32 0, i32 0
  %22 = load ptr, ptr %21, align 8, !tbaa !15
  %23 = getelementptr inbounds nuw i8, ptr %22, i64 %19
  store ptr %23, ptr %21, align 8, !tbaa !15
  %24 = load i64, ptr %7, align 8, !tbaa !13
  %25 = load ptr, ptr %5, align 8, !tbaa !6
  %26 = getelementptr inbounds nuw %struct.cbs_st, ptr %25, i32 0, i32 1
  %27 = load i64, ptr %26, align 8, !tbaa !17
  %28 = sub i64 %27, %24
  store i64 %28, ptr %26, align 8, !tbaa !17
  store i32 1, ptr %4, align 4
  br label %29

29:                                               ; preds = %14, %13
  %30 = load i32, ptr %4, align 4
  ret i32 %30
}

; Function Attrs: nounwind uwtable
define internal i32 @cbs_get_u(ptr noundef %0, ptr noundef %1, i64 noundef %2) #0 {
  %4 = alloca i32, align 4
  %5 = alloca ptr, align 8
  %6 = alloca ptr, align 8
  %7 = alloca i64, align 8
  %8 = alloca i32, align 4
  %9 = alloca i64, align 8
  %10 = alloca ptr, align 8
  %11 = alloca i32, align 4
  store ptr %0, ptr %5, align 8, !tbaa !6
  store ptr %1, ptr %6, align 8, !tbaa !29
  store i64 %2, ptr %7, align 8, !tbaa !13
  call void @llvm.lifetime.start.p0(i64 4, ptr %8) #6
  store i32 0, ptr %8, align 4, !tbaa !25
  call void @llvm.lifetime.start.p0(i64 8, ptr %9) #6
  call void @llvm.lifetime.start.p0(i64 8, ptr %10) #6
  %12 = load ptr, ptr %5, align 8, !tbaa !6
  %13 = load i64, ptr %7, align 8, !tbaa !13
  %14 = call i32 @cbs_get(ptr noundef %12, ptr noundef %10, i64 noundef %13)
  %15 = icmp ne i32 %14, 0
  br i1 %15, label %17, label %16

16:                                               ; preds = %3
  store i32 0, ptr %4, align 4
  store i32 1, ptr %11, align 4
  br label %38

17:                                               ; preds = %3
  store i64 0, ptr %9, align 8, !tbaa !13
  br label %18

18:                                               ; preds = %32, %17
  %19 = load i64, ptr %9, align 8, !tbaa !13
  %20 = load i64, ptr %7, align 8, !tbaa !13
  %21 = icmp ult i64 %19, %20
  br i1 %21, label %22, label %35

22:                                               ; preds = %18
  %23 = load i32, ptr %8, align 4, !tbaa !25
  %24 = shl i32 %23, 8
  store i32 %24, ptr %8, align 4, !tbaa !25
  %25 = load ptr, ptr %10, align 8, !tbaa !11
  %26 = load i64, ptr %9, align 8, !tbaa !13
  %27 = getelementptr inbounds nuw i8, ptr %25, i64 %26
  %28 = load i8, ptr %27, align 1, !tbaa !22
  %29 = zext i8 %28 to i32
  %30 = load i32, ptr %8, align 4, !tbaa !25
  %31 = or i32 %30, %29
  store i32 %31, ptr %8, align 4, !tbaa !25
  br label %32

32:                                               ; preds = %22
  %33 = load i64, ptr %9, align 8, !tbaa !13
  %34 = add i64 %33, 1
  store i64 %34, ptr %9, align 8, !tbaa !13
  br label %18, !llvm.loop !31

35:                                               ; preds = %18
  %36 = load i32, ptr %8, align 4, !tbaa !25
  %37 = load ptr, ptr %6, align 8, !tbaa !29
  store i32 %36, ptr %37, align 4, !tbaa !25
  store i32 1, ptr %4, align 4
  store i32 1, ptr %11, align 4
  br label %38

38:                                               ; preds = %35, %16
  call void @llvm.lifetime.end.p0(i64 8, ptr %10) #6
  call void @llvm.lifetime.end.p0(i64 8, ptr %9) #6
  call void @llvm.lifetime.end.p0(i64 4, ptr %8) #6
  %39 = load i32, ptr %4, align 4
  ret i32 %39
}

; Function Attrs: nounwind uwtable
define hidden i32 @CBS_get_bytes(ptr noundef %0, ptr noundef %1, i64 noundef %2) #0 {
  %4 = alloca i32, align 4
  %5 = alloca ptr, align 8
  %6 = alloca ptr, align 8
  %7 = alloca i64, align 8
  %8 = alloca ptr, align 8
  %9 = alloca i32, align 4
  store ptr %0, ptr %5, align 8, !tbaa !6
  store ptr %1, ptr %6, align 8, !tbaa !6
  store i64 %2, ptr %7, align 8, !tbaa !13
  call void @llvm.lifetime.start.p0(i64 8, ptr %8) #6
  %10 = load ptr, ptr %5, align 8, !tbaa !6
  %11 = load i64, ptr %7, align 8, !tbaa !13
  %12 = call i32 @cbs_get(ptr noundef %10, ptr noundef %8, i64 noundef %11)
  %13 = icmp ne i32 %12, 0
  br i1 %13, label %15, label %14

14:                                               ; preds = %3
  store i32 0, ptr %4, align 4
  store i32 1, ptr %9, align 4
  br label %19

15:                                               ; preds = %3
  %16 = load ptr, ptr %6, align 8, !tbaa !6
  %17 = load ptr, ptr %8, align 8, !tbaa !11
  %18 = load i64, ptr %7, align 8, !tbaa !13
  call void @CBS_init(ptr noundef %16, ptr noundef %17, i64 noundef %18)
  store i32 1, ptr %4, align 4
  store i32 1, ptr %9, align 4
  br label %19

19:                                               ; preds = %15, %14
  call void @llvm.lifetime.end.p0(i64 8, ptr %8) #6
  %20 = load i32, ptr %4, align 4
  ret i32 %20
}

; Function Attrs: nounwind uwtable
define hidden i32 @CBS_get_u8(ptr noundef %0, ptr noundef %1) #0 {
  %3 = alloca i32, align 4
  %4 = alloca ptr, align 8
  %5 = alloca ptr, align 8
  %6 = alloca ptr, align 8
  %7 = alloca i32, align 4
  store ptr %0, ptr %4, align 8, !tbaa !6
  store ptr %1, ptr %5, align 8, !tbaa !11
  call void @llvm.lifetime.start.p0(i64 8, ptr %6) #6
  %8 = load ptr, ptr %4, align 8, !tbaa !6
  %9 = call i32 @cbs_get(ptr noundef %8, ptr noundef %6, i64 noundef 1)
  %10 = icmp ne i32 %9, 0
  br i1 %10, label %12, label %11

11:                                               ; preds = %2
  store i32 0, ptr %3, align 4
  store i32 1, ptr %7, align 4
  br label %16

12:                                               ; preds = %2
  %13 = load ptr, ptr %6, align 8, !tbaa !11
  %14 = load i8, ptr %13, align 1, !tbaa !22
  %15 = load ptr, ptr %5, align 8, !tbaa !11
  store i8 %14, ptr %15, align 1, !tbaa !22
  store i32 1, ptr %3, align 4
  store i32 1, ptr %7, align 4
  br label %16

16:                                               ; preds = %12, %11
  call void @llvm.lifetime.end.p0(i64 8, ptr %6) #6
  %17 = load i32, ptr %3, align 4
  ret i32 %17
}

; Function Attrs: nounwind uwtable
define internal i32 @cbs_get_any_asn1_element(ptr noundef %0, ptr noundef %1, ptr noundef %2, ptr noundef %3, i32 noundef %4) #0 {
  %6 = alloca i32, align 4
  %7 = alloca ptr, align 8
  %8 = alloca ptr, align 8
  %9 = alloca ptr, align 8
  %10 = alloca ptr, align 8
  %11 = alloca i32, align 4
  %12 = alloca i8, align 1
  %13 = alloca i8, align 1
  %14 = alloca %struct.cbs_st, align 8
  %15 = alloca %struct.cbs_st, align 8
  %16 = alloca i32, align 4
  %17 = alloca i64, align 8
  %18 = alloca i64, align 8
  %19 = alloca i32, align 4
  store ptr %0, ptr %7, align 8, !tbaa !6
  store ptr %1, ptr %8, align 8, !tbaa !6
  store ptr %2, ptr %9, align 8, !tbaa !29
  store ptr %3, ptr %10, align 8, !tbaa !20
  store i32 %4, ptr %11, align 4, !tbaa !25
  call void @llvm.lifetime.start.p0(i64 1, ptr %12) #6
  call void @llvm.lifetime.start.p0(i64 1, ptr %13) #6
  call void @llvm.lifetime.start.p0(i64 16, ptr %14) #6
  %20 = load ptr, ptr %7, align 8, !tbaa !6
  call void @llvm.memcpy.p0.p0.i64(ptr align 8 %14, ptr align 8 %20, i64 16, i1 false), !tbaa.struct !33
  call void @llvm.lifetime.start.p0(i64 16, ptr %15) #6
  %21 = load ptr, ptr %8, align 8, !tbaa !6
  %22 = icmp eq ptr %21, null
  br i1 %22, label %23, label %24

23:                                               ; preds = %5
  store ptr %15, ptr %8, align 8, !tbaa !6
  br label %24

24:                                               ; preds = %23, %5
  %25 = call i32 @CBS_get_u8(ptr noundef %14, ptr noundef %12)
  %26 = icmp ne i32 %25, 0
  br i1 %26, label %27, label %30

27:                                               ; preds = %24
  %28 = call i32 @CBS_get_u8(ptr noundef %14, ptr noundef %13)
  %29 = icmp ne i32 %28, 0
  br i1 %29, label %31, label %30

30:                                               ; preds = %27, %24
  store i32 0, ptr %6, align 4
  store i32 1, ptr %16, align 4
  br label %138

31:                                               ; preds = %27
  %32 = load i8, ptr %12, align 1, !tbaa !22
  %33 = zext i8 %32 to i32
  %34 = and i32 %33, 31
  %35 = icmp eq i32 %34, 31
  br i1 %35, label %36, label %37

36:                                               ; preds = %31
  store i32 0, ptr %6, align 4
  store i32 1, ptr %16, align 4
  br label %138

37:                                               ; preds = %31
  %38 = load ptr, ptr %9, align 8, !tbaa !29
  %39 = icmp ne ptr %38, null
  br i1 %39, label %40, label %44

40:                                               ; preds = %37
  %41 = load i8, ptr %12, align 1, !tbaa !22
  %42 = zext i8 %41 to i32
  %43 = load ptr, ptr %9, align 8, !tbaa !29
  store i32 %42, ptr %43, align 4, !tbaa !25
  br label %44

44:                                               ; preds = %40, %37
  call void @llvm.lifetime.start.p0(i64 8, ptr %17) #6
  %45 = load i8, ptr %13, align 1, !tbaa !22
  %46 = zext i8 %45 to i32
  %47 = and i32 %46, 128
  %48 = icmp eq i32 %47, 0
  br i1 %48, label %49, label %58

49:                                               ; preds = %44
  %50 = load i8, ptr %13, align 1, !tbaa !22
  %51 = zext i8 %50 to i64
  %52 = add i64 %51, 2
  store i64 %52, ptr %17, align 8, !tbaa !13
  %53 = load ptr, ptr %10, align 8, !tbaa !20
  %54 = icmp ne ptr %53, null
  br i1 %54, label %55, label %57

55:                                               ; preds = %49
  %56 = load ptr, ptr %10, align 8, !tbaa !20
  store i64 2, ptr %56, align 8, !tbaa !13
  br label %57

57:                                               ; preds = %55, %49
  br label %132

58:                                               ; preds = %44
  call void @llvm.lifetime.start.p0(i64 8, ptr %18) #6
  %59 = load i8, ptr %13, align 1, !tbaa !22
  %60 = zext i8 %59 to i32
  %61 = and i32 %60, 127
  %62 = sext i32 %61 to i64
  store i64 %62, ptr %18, align 8, !tbaa !13
  call void @llvm.lifetime.start.p0(i64 4, ptr %19) #6
  %63 = load i32, ptr %11, align 4, !tbaa !25
  %64 = icmp ne i32 %63, 0
  br i1 %64, label %65, label %82

65:                                               ; preds = %58
  %66 = load i8, ptr %12, align 1, !tbaa !22
  %67 = zext i8 %66 to i32
  %68 = and i32 %67, 32
  %69 = icmp ne i32 %68, 0
  br i1 %69, label %70, label %82

70:                                               ; preds = %65
  %71 = load i64, ptr %18, align 8, !tbaa !13
  %72 = icmp eq i64 %71, 0
  br i1 %72, label %73, label %82

73:                                               ; preds = %70
  %74 = load ptr, ptr %10, align 8, !tbaa !20
  %75 = icmp ne ptr %74, null
  br i1 %75, label %76, label %78

76:                                               ; preds = %73
  %77 = load ptr, ptr %10, align 8, !tbaa !20
  store i64 2, ptr %77, align 8, !tbaa !13
  br label %78

78:                                               ; preds = %76, %73
  %79 = load ptr, ptr %7, align 8, !tbaa !6
  %80 = load ptr, ptr %8, align 8, !tbaa !6
  %81 = call i32 @CBS_get_bytes(ptr noundef %79, ptr noundef %80, i64 noundef 2)
  store i32 %81, ptr %6, align 4
  store i32 1, ptr %16, align 4
  br label %129

82:                                               ; preds = %70, %65, %58
  %83 = load i64, ptr %18, align 8, !tbaa !13
  %84 = icmp eq i64 %83, 0
  br i1 %84, label %88, label %85

85:                                               ; preds = %82
  %86 = load i64, ptr %18, align 8, !tbaa !13
  %87 = icmp ugt i64 %86, 4
  br i1 %87, label %88, label %89

88:                                               ; preds = %85, %82
  store i32 0, ptr %6, align 4
  store i32 1, ptr %16, align 4
  br label %129

89:                                               ; preds = %85
  %90 = load i64, ptr %18, align 8, !tbaa !13
  %91 = call i32 @cbs_get_u(ptr noundef %14, ptr noundef %19, i64 noundef %90)
  %92 = icmp ne i32 %91, 0
  br i1 %92, label %94, label %93

93:                                               ; preds = %89
  store i32 0, ptr %6, align 4
  store i32 1, ptr %16, align 4
  br label %129

94:                                               ; preds = %89
  %95 = load i32, ptr %19, align 4, !tbaa !25
  %96 = icmp ult i32 %95, 128
  br i1 %96, label %97, label %98

97:                                               ; preds = %94
  store i32 0, ptr %6, align 4
  store i32 1, ptr %16, align 4
  br label %129

98:                                               ; preds = %94
  %99 = load i32, ptr %19, align 4, !tbaa !25
  %100 = load i64, ptr %18, align 8, !tbaa !13
  %101 = sub i64 %100, 1
  %102 = mul i64 %101, 8
  %103 = trunc i64 %102 to i32
  %104 = lshr i32 %99, %103
  %105 = icmp eq i32 %104, 0
  br i1 %105, label %106, label %107

106:                                              ; preds = %98
  store i32 0, ptr %6, align 4
  store i32 1, ptr %16, align 4
  br label %129

107:                                              ; preds = %98
  %108 = load i32, ptr %19, align 4, !tbaa !25
  %109 = zext i32 %108 to i64
  store i64 %109, ptr %17, align 8, !tbaa !13
  %110 = load i64, ptr %17, align 8, !tbaa !13
  %111 = add i64 %110, 2
  %112 = load i64, ptr %18, align 8, !tbaa !13
  %113 = add i64 %111, %112
  %114 = load i64, ptr %17, align 8, !tbaa !13
  %115 = icmp ult i64 %113, %114
  br i1 %115, label %116, label %117

116:                                              ; preds = %107
  store i32 0, ptr %6, align 4
  store i32 1, ptr %16, align 4
  br label %129

117:                                              ; preds = %107
  %118 = load i64, ptr %18, align 8, !tbaa !13
  %119 = add i64 2, %118
  %120 = load i64, ptr %17, align 8, !tbaa !13
  %121 = add i64 %120, %119
  store i64 %121, ptr %17, align 8, !tbaa !13
  %122 = load ptr, ptr %10, align 8, !tbaa !20
  %123 = icmp ne ptr %122, null
  br i1 %123, label %124, label %128

124:                                              ; preds = %117
  %125 = load i64, ptr %18, align 8, !tbaa !13
  %126 = add i64 2, %125
  %127 = load ptr, ptr %10, align 8, !tbaa !20
  store i64 %126, ptr %127, align 8, !tbaa !13
  br label %128

128:                                              ; preds = %124, %117
  store i32 0, ptr %16, align 4
  br label %129

129:                                              ; preds = %128, %116, %106, %97, %93, %88, %78
  call void @llvm.lifetime.end.p0(i64 4, ptr %19) #6
  call void @llvm.lifetime.end.p0(i64 8, ptr %18) #6
  %130 = load i32, ptr %16, align 4
  switch i32 %130, label %137 [
    i32 0, label %131
  ]

131:                                              ; preds = %129
  br label %132

132:                                              ; preds = %131, %57
  %133 = load ptr, ptr %7, align 8, !tbaa !6
  %134 = load ptr, ptr %8, align 8, !tbaa !6
  %135 = load i64, ptr %17, align 8, !tbaa !13
  %136 = call i32 @CBS_get_bytes(ptr noundef %133, ptr noundef %134, i64 noundef %135)
  store i32 %136, ptr %6, align 4
  store i32 1, ptr %16, align 4
  br label %137

137:                                              ; preds = %132, %129
  call void @llvm.lifetime.end.p0(i64 8, ptr %17) #6
  br label %138

138:                                              ; preds = %137, %36, %30
  call void @llvm.lifetime.end.p0(i64 16, ptr %15) #6
  call void @llvm.lifetime.end.p0(i64 16, ptr %14) #6
  call void @llvm.lifetime.end.p0(i64 1, ptr %13) #6
  call void @llvm.lifetime.end.p0(i64 1, ptr %12) #6
  %139 = load i32, ptr %6, align 4
  ret i32 %139
}

; Function Attrs: nounwind uwtable
define hidden i32 @CBS_get_any_asn1_element(ptr noundef %0, ptr noundef %1, ptr noundef %2, ptr noundef %3) #0 {
  %5 = alloca ptr, align 8
  %6 = alloca ptr, align 8
  %7 = alloca ptr, align 8
  %8 = alloca ptr, align 8
  store ptr %0, ptr %5, align 8, !tbaa !6
  store ptr %1, ptr %6, align 8, !tbaa !6
  store ptr %2, ptr %7, align 8, !tbaa !29
  store ptr %3, ptr %8, align 8, !tbaa !20
  %9 = load ptr, ptr %5, align 8, !tbaa !6
  %10 = load ptr, ptr %6, align 8, !tbaa !6
  %11 = load ptr, ptr %7, align 8, !tbaa !29
  %12 = load ptr, ptr %8, align 8, !tbaa !20
  %13 = call i32 @cbs_get_any_asn1_element(ptr noundef %9, ptr noundef %10, ptr noundef %11, ptr noundef %12, i32 noundef 0)
  ret i32 %13
}