; Function Attrs: nofree norecurse nosync nounwind memory(read, argmem: readwrite, inaccessiblemem: none) uwtable
define hidden range(i32 0, 2) i32 @CBS_get_any_asn1_element(ptr noundef captures(none) %0, ptr noundef writeonly captures(address_is_null) %1, ptr noundef writeonly captures(address_is_null) %2, ptr noundef writeonly captures(address_is_null) %3) local_unnamed_addr #10 {
  %.sroa.067.0.copyload.i = load ptr, ptr %0, align 8, !tbaa !14
  %.sroa.9.0..sroa_idx.i = getelementptr inbounds nuw i8, ptr %0, i64 8
  %.sroa.9.0.copyload.i = load i64, ptr %.sroa.9.0..sroa_idx.i, align 8, !tbaa !15
  %5 = icmp eq ptr %1, null
  %switch = icmp ult i64 %.sroa.9.0.copyload.i, 2
  br i1 %switch, label %cbs_get_any_asn1_element.exit, label %6

6:                                                ; preds = %4
  %7 = load i8, ptr %.sroa.067.0.copyload.i, align 1, !tbaa !16
  %8 = getelementptr inbounds nuw i8, ptr %.sroa.067.0.copyload.i, i64 1
  %9 = getelementptr inbounds nuw i8, ptr %.sroa.067.0.copyload.i, i64 2
  %10 = add i64 %.sroa.9.0.copyload.i, -2
  %11 = load i8, ptr %8, align 1, !tbaa !16
  %12 = zext i8 %7 to i32
  %13 = and i32 %12, 31
  %14 = icmp eq i32 %13, 31
  br i1 %14, label %cbs_get_any_asn1_element.exit, label %15

15:                                               ; preds = %6
  %.not43.i = icmp eq ptr %2, null
  br i1 %.not43.i, label %17, label %16

16:                                               ; preds = %15
  store i32 %12, ptr %2, align 4, !tbaa !21
  br label %17

17:                                               ; preds = %16, %15
  %18 = icmp sgt i8 %11, -1
  br i1 %18, label %19, label %21

19:                                               ; preds = %17
  %narrow.i = add nuw i8 %11, 2
  %20 = zext i8 %narrow.i to i64
  %.not48.i = icmp eq ptr %3, null
  br i1 %.not48.i, label %CBS_get_bytes.exit.i, label %CBS_get_bytes.exit.sink.split.i

21:                                               ; preds = %17
  %22 = and i8 %11, 127
  %23 = zext nneg i8 %22 to i64
  %24 = add nsw i8 %22, -5
  %or.cond3.i = icmp ult i8 %24, -4
  %25 = icmp ult i64 %10, %23
  %or.cond96.i = select i1 %or.cond3.i, i1 true, i1 %25
  br i1 %or.cond96.i, label %cbs_get_any_asn1_element.exit, label %cbs_get.exit.i.i

cbs_get.exit.i.i:                                 ; preds = %21, %cbs_get.exit.i.i
  %.017.i.i = phi i64 [ %31, %cbs_get.exit.i.i ], [ 0, %21 ]
  %.01016.i.i = phi i32 [ %30, %cbs_get.exit.i.i ], [ 0, %21 ]
  %26 = shl i32 %.01016.i.i, 8
  %27 = getelementptr inbounds nuw i8, ptr %9, i64 %.017.i.i
  %28 = load i8, ptr %27, align 1, !tbaa !16
  %29 = zext i8 %28 to i32
  %30 = or disjoint i32 %26, %29
  %31 = add nuw nsw i64 %.017.i.i, 1
  %exitcond.not.i.i = icmp eq i64 %31, %23
  br i1 %exitcond.not.i.i, label %cbs_get_u.exit.i, label %cbs_get.exit.i.i, !llvm.loop !17

cbs_get_u.exit.i:                                 ; preds = %cbs_get.exit.i.i
  %32 = icmp ult i32 %30, 128
  br i1 %32, label %cbs_get_any_asn1_element.exit, label %33

33:                                               ; preds = %cbs_get_u.exit.i
  %34 = shl i8 %11, 3
  %35 = zext i8 %34 to i32
  %36 = add nsw i32 %35, -8
  %37 = lshr i32 %30, %36
  %38 = icmp eq i32 %37, 0
  br i1 %38, label %cbs_get_any_asn1_element.exit, label %39

39:                                               ; preds = %33
  %40 = zext i32 %30 to i64
  %41 = add nuw nsw i64 %23, 2
  %42 = add nuw nsw i64 %41, %40
  %.not46.i = icmp eq ptr %3, null
  br i1 %.not46.i, label %CBS_get_bytes.exit.i, label %CBS_get_bytes.exit.sink.split.i

CBS_get_bytes.exit.sink.split.i:                  ; preds = %39, %19
  %.sink.i = phi i64 [ 2, %19 ], [ %41, %39 ]
  %.031.ph.i = phi i64 [ %20, %19 ], [ %42, %39 ]
  store i64 %.sink.i, ptr %3, align 8, !tbaa !15
  %.pre = load i64, ptr %.sroa.9.0..sroa_idx.i, align 8, !tbaa !13
  br label %CBS_get_bytes.exit.i

CBS_get_bytes.exit.i:                             ; preds = %CBS_get_bytes.exit.sink.split.i, %39, %19
  %43 = phi i64 [ %.sroa.9.0.copyload.i, %19 ], [ %.sroa.9.0.copyload.i, %39 ], [ %.pre, %CBS_get_bytes.exit.sink.split.i ]
  %.031.i = phi i64 [ %20, %19 ], [ %42, %39 ], [ %.031.ph.i, %CBS_get_bytes.exit.sink.split.i ]
  %44 = icmp ult i64 %43, %.031.i
  br i1 %44, label %cbs_get_any_asn1_element.exit, label %45

45:                                               ; preds = %CBS_get_bytes.exit.i
  %46 = getelementptr inbounds nuw i8, ptr %.sroa.067.0.copyload.i, i64 %.031.i
  store ptr %46, ptr %0, align 8, !tbaa !6
  %47 = sub nuw i64 %43, %.031.i
  store i64 %47, ptr %.sroa.9.0..sroa_idx.i, align 8, !tbaa !13
  br i1 %5, label %cbs_get_any_asn1_element.exit, label %CBS_get_bytes.exit53.sink.split.i

CBS_get_bytes.exit53.sink.split.i:                ; preds = %45
  store ptr %.sroa.067.0.copyload.i, ptr %1, align 8, !tbaa !6
  %.sroa.gep54.i = getelementptr inbounds nuw i8, ptr %1, i64 8
  store i64 %.031.i, ptr %.sroa.gep54.i, align 8, !tbaa !13
  br label %cbs_get_any_asn1_element.exit

cbs_get_any_asn1_element.exit:                    ; preds = %4, %6, %21, %cbs_get_u.exit.i, %33, %CBS_get_bytes.exit.i, %45, %CBS_get_bytes.exit53.sink.split.i
  %.0.i = phi i32 [ 0, %6 ], [ 0, %CBS_get_bytes.exit.i ], [ 1, %45 ], [ 0, %33 ], [ 0, %cbs_get_u.exit.i ], [ 0, %21 ], [ 1, %CBS_get_bytes.exit53.sink.split.i ], [ 0, %4 ]
  ret i32 %.0.i
}